target datalayout = "e-m:e-p270:32:32-p271:32:32-p272:64:64-i64:64-i128:128-f80:128-n8:16:32:64-S128"
target triple = "x86_64-pc-linux-gnu"

%struct.SDL_joylist_item = type { i32, ptr, ptr, %struct.SDL_GUID, i64, i32, ptr, ptr, i8, ptr }
%struct.SDL_GUID = type { [16 x i8] }
%struct.SDL_sensorlist_item = type { ptr, i64, ptr, ptr }
%struct.joystick_hwdata = type { i32, i32, ptr, ptr, %struct.SDL_GUID, ptr, i8, i8, %struct.ff_effect, i32, ptr, ptr, [767 x i8], [63 x i8], [767 x i8], [63 x i8], i8, i8, i8, ptr, ptr, [63 x %struct.axis_correct], [3 x float], [3 x float], [3 x float], [3 x float], i64, i32, i8, i8, i8, i8, i8, [4 x i32], [4 x i8], [4 x %struct.hat_axis_correct], i8, i8 }
%struct.ff_effect = type { i16, i16, i16, %struct.ff_trigger, %struct.ff_replay, %union.anon }
%struct.ff_trigger = type { i16, i16 }
%struct.ff_replay = type { i16, i16 }
%union.anon = type { %struct.ff_periodic_effect }
%struct.ff_periodic_effect = type { i16, i16, i16, i16, i16, %struct.ff_envelope, i32, ptr }
%struct.ff_envelope = type { i16, i16, i16, i16 }
%struct.axis_correct = type { i8, [3 x i32], i32, i32, float }
%struct.hat_axis_correct = type { i8, [2 x i32], [2 x i32] }

@SDL_joylist = internal global ptr null, align 8
@SDL_sensorlist = internal global ptr null, align 8

; Function Attrs: nounwind uwtable
define internal void @FreeSensorlistItem(ptr noundef %0) #0 {
  %2 = alloca ptr, align 8
  store ptr %0, ptr %2, align 8
  %3 = load ptr, ptr %2, align 8
  %4 = getelementptr inbounds nuw %struct.SDL_sensorlist_item, ptr %3, i32 0, i32 0
  %5 = load ptr, ptr %4, align 8
  call void @SDL_free_REAL(ptr noundef %5)
  %6 = load ptr, ptr %2, align 8
  call void @SDL_free_REAL(ptr noundef %6)
  ret void
}

; Function Attrs: nounwind uwtable
define internal void @RemoveSensorlistItem(ptr noundef %0, ptr noundef %1) #0 {
  %3 = alloca ptr, align 8
  %4 = alloca ptr, align 8
  store ptr %0, ptr %3, align 8
  store ptr %1, ptr %4, align 8
  call void @SDL_AssertJoysticksLocked()
  %5 = load ptr, ptr %3, align 8
  %6 = getelementptr inbounds nuw %struct.SDL_sensorlist_item, ptr %5, i32 0, i32 2
  %7 = load ptr, ptr %6, align 8
  %8 = icmp ne ptr %7, null
  br i1 %8, label %9, label %14

9:                                                ; preds = %2
  %10 = load ptr, ptr %3, align 8
  %11 = getelementptr inbounds nuw %struct.SDL_sensorlist_item, ptr %10, i32 0, i32 2
  %12 = load ptr, ptr %11, align 8
  %13 = getelementptr inbounds nuw %struct.joystick_hwdata, ptr %12, i32 0, i32 3
  store ptr null, ptr %13, align 8
  br label %14

14:                                               ; preds = %9, %2
  %15 = load ptr, ptr %4, align 8
  %16 = icmp ne ptr %15, null
  br i1 %16, label %17, label %23

17:                                               ; preds = %14
  %18 = load ptr, ptr %3, align 8
  %19 = getelementptr inbounds nuw %struct.SDL_sensorlist_item, ptr %18, i32 0, i32 3
  %20 = load ptr, ptr %19, align 8
  %21 = load ptr, ptr %4, align 8
  %22 = getelementptr inbounds nuw %struct.SDL_sensorlist_item, ptr %21, i32 0, i32 3
  store ptr %20, ptr %22, align 8
  br label %29

23:                                               ; preds = %14
  br label %24

24:                                               ; preds = %23
  br label %25

25:                                               ; preds = %24
  %26 = load ptr, ptr %3, align 8
  %27 = getelementptr inbounds nuw %struct.SDL_sensorlist_item, ptr %26, i32 0, i32 3
  %28 = load ptr, ptr %27, align 8
  store ptr %28, ptr @SDL_sensorlist, align 8
  br label %29

29:                                               ; preds = %25, %17
  %30 = load ptr, ptr %3, align 8
  call void @FreeSensorlistItem(ptr noundef %30)
  ret void
}

; Function Attrs: nounwind uwtable
define internal void @MaybeRemoveDevice(ptr noundef %0) #0 {
  %2 = alloca ptr, align 8
  %3 = alloca ptr, align 8
  %4 = alloca ptr, align 8
  %5 = alloca ptr, align 8
  %6 = alloca ptr, align 8
  %7 = alloca i32, align 4
  store ptr %0, ptr %2, align 8
  call void @llvm.lifetime.start.p0(i64 8, ptr %3) #11
  call void @llvm.lifetime.start.p0(i64 8, ptr %4) #11
  store ptr null, ptr %4, align 8
  call void @llvm.lifetime.start.p0(i64 8, ptr %5) #11
  call void @llvm.lifetime.start.p0(i64 8, ptr %6) #11
  store ptr null, ptr %6, align 8
  %8 = load ptr, ptr %2, align 8
  %9 = icmp ne ptr %8, null
  br i1 %9, label %11, label %10

10:                                               ; preds = %1
  store i32 1, ptr %7, align 4
  br label %55

11:                                               ; preds = %1
  call void @SDL_LockJoysticks_REAL()
  %12 = load ptr, ptr @SDL_joylist, align 8
  store ptr %12, ptr %3, align 8
  br label %13

13:                                               ; preds = %28, %11
  %14 = load ptr, ptr %3, align 8
  %15 = icmp ne ptr %14, null
  br i1 %15, label %16, label %32

16:                                               ; preds = %13
  %17 = load ptr, ptr %2, align 8
  %18 = load ptr, ptr %3, align 8
  %19 = getelementptr inbounds nuw %struct.SDL_joylist_item, ptr %18, i32 0, i32 1
  %20 = load ptr, ptr %19, align 8
  %21 = call i32 @SDL_strcmp_REAL(ptr noundef %17, ptr noundef %20)
  %22 = icmp eq i32 %21, 0
  br i1 %22, label %23, label %26

23:                                               ; preds = %16
  %24 = load ptr, ptr %3, align 8
  %25 = load ptr, ptr %4, align 8
  call void @RemoveJoylistItem(ptr noundef %24, ptr noundef %25)
  br label %54

26:                                               ; preds = %16
  %27 = load ptr, ptr %3, align 8
  store ptr %27, ptr %4, align 8
  br label %28

28:                                               ; preds = %26
  %29 = load ptr, ptr %3, align 8
  %30 = getelementptr inbounds nuw %struct.SDL_joylist_item, ptr %29, i32 0, i32 7
  %31 = load ptr, ptr %30, align 8
  store ptr %31, ptr %3, align 8
  br label %13, !llvm.loop !12

32:                                               ; preds = %13
  %33 = load ptr, ptr @SDL_sensorlist, align 8
  store ptr %33, ptr %5, align 8
  br label %34

34:                                               ; preds = %49, %32
  %35 = load ptr, ptr %5, align 8
  %36 = icmp ne ptr %35, null
  br i1 %36, label %37, label %53

37:                                               ; preds = %34
  %38 = load ptr, ptr %2, align 8
  %39 = load ptr, ptr %5, align 8
  %40 = getelementptr inbounds nuw %struct.SDL_sensorlist_item, ptr %39, i32 0, i32 0
  %41 = load ptr, ptr %40, align 8
  %42 = call i32 @SDL_strcmp_REAL(ptr noundef %38, ptr noundef %41)
  %43 = icmp eq i32 %42, 0
  br i1 %43, label %44, label %47

44:                                               ; preds = %37
  %45 = load ptr, ptr %5, align 8
  %46 = load ptr, ptr %6, align 8
  call void @RemoveSensorlistItem(ptr noundef %45, ptr noundef %46)
  br label %54

47:                                               ; preds = %37
  %48 = load ptr, ptr %5, align 8
  store ptr %48, ptr %6, align 8
  br label %49

49:                                               ; preds = %47
  %50 = load ptr, ptr %5, align 8
  %51 = getelementptr inbounds nuw %struct.SDL_sensorlist_item, ptr %50, i32 0, i32 3
  %52 = load ptr, ptr %51, align 8
  store ptr %52, ptr %5, align 8
  br label %34, !llvm.loop !13

53:                                               ; preds = %34
  br label %54

54:                                               ; preds = %53, %44, %23
  call void @SDL_UnlockJoysticks_REAL()
  store i32 0, ptr %7, align 4
  br label %55

55:                                               ; preds = %54, %10
  call void @llvm.lifetime.end.p0(i64 8, ptr %6) #11
  call void @llvm.lifetime.end.p0(i64 8, ptr %5) #11
  call void @llvm.lifetime.end.p0(i64 8, ptr %4) #11
  call void @llvm.lifetime.end.p0(i64 8, ptr %3) #11
  %56 = load i32, ptr %7, align 4
  switch i32 %56, label %58 [
    i32 0, label %57
    i32 1, label %57
  ]

57:                                               ; preds = %55, %55
  ret void

58:                                               ; preds = %55
  unreachable
}