; Function Attrs: nounwind uwtable
define internal fastcc void @MaybeRemoveDevice(ptr noundef nonnull %0) unnamed_addr #0 {
  tail call void @SDL_LockJoysticks_REAL() #18
  %.01724 = load ptr, ptr @SDL_joylist, align 8
  %.not25 = icmp eq ptr %.01724, null
  br i1 %.not25, label %.preheader, label %.lr.ph.preheader

.lr.ph.preheader:                                 ; preds = %1
  %2 = getelementptr inbounds nuw i8, ptr %.01724, i64 8
  %3 = load ptr, ptr %2, align 8
  %4 = tail call i32 @SDL_strcmp_REAL(ptr noundef nonnull %0, ptr noundef %3) #18
  %5 = icmp eq i32 %4, 0
  br i1 %5, label %.lr.ph._crit_edge, label %.lr.ph46

.preheader:                                       ; preds = %.lr.ph46, %1
  %.01528 = load ptr, ptr @SDL_sensorlist, align 8
  %.not1929 = icmp eq ptr %.01528, null
  br i1 %.not1929, label %.loopexit, label %.lr.ph32.preheader

.lr.ph32.preheader:                               ; preds = %.preheader
  %6 = load ptr, ptr %.01528, align 8
  %7 = tail call i32 @SDL_strcmp_REAL(ptr noundef nonnull %0, ptr noundef %6) #18
  %8 = icmp eq i32 %7, 0
  br i1 %8, label %.lr.ph32._crit_edge, label %.lr.ph49

.lr.ph:                                           ; preds = %.lr.ph46
  %9 = getelementptr inbounds nuw i8, ptr %.017, i64 8
  %10 = load ptr, ptr %9, align 8
  %11 = tail call i32 @SDL_strcmp_REAL(ptr noundef nonnull %0, ptr noundef %10) #18
  %12 = icmp eq i32 %11, 0
  br i1 %12, label %.lr.ph._crit_edge, label %.lr.ph46, !llvm.loop !26

.lr.ph._crit_edge:                                ; preds = %.lr.ph, %.lr.ph.preheader
  %.01727.lcssa = phi ptr [ %.01724, %.lr.ph.preheader ], [ %.017, %.lr.ph ]
  %.01626.lcssa = phi ptr [ null, %.lr.ph.preheader ], [ %.0172745, %.lr.ph ]
  tail call fastcc void @RemoveJoylistItem(ptr noundef %.01727.lcssa, ptr noundef %.01626.lcssa)
  br label %.loopexit

.lr.ph46:                                         ; preds = %.lr.ph.preheader, %.lr.ph
  %.0172745 = phi ptr [ %.017, %.lr.ph ], [ %.01724, %.lr.ph.preheader ]
  %13 = getelementptr inbounds nuw i8, ptr %.0172745, i64 64
  %.017 = load ptr, ptr %13, align 8
  %.not = icmp eq ptr %.017, null
  br i1 %.not, label %.preheader, label %.lr.ph, !llvm.loop !26

.lr.ph32:                                         ; preds = %.lr.ph49
  %14 = load ptr, ptr %.015, align 8
  %15 = tail call i32 @SDL_strcmp_REAL(ptr noundef nonnull %0, ptr noundef %14) #18
  %16 = icmp eq i32 %15, 0
  br i1 %16, label %.lr.ph32._crit_edge, label %.lr.ph49, !llvm.loop !27

.lr.ph32._crit_edge:                              ; preds = %.lr.ph32, %.lr.ph32.preheader
  %.01531.lcssa = phi ptr [ %.01528, %.lr.ph32.preheader ], [ %.015, %.lr.ph32 ]
  %.030.lcssa = phi ptr [ null, %.lr.ph32.preheader ], [ %.0153148, %.lr.ph32 ]
  tail call void @SDL_AssertJoysticksLocked() #18
  %17 = getelementptr inbounds nuw i8, ptr %.01531.lcssa, i64 16
  %18 = load ptr, ptr %17, align 8
  %.not.i = icmp eq ptr %18, null
  br i1 %.not.i, label %21, label %19

19:                                               ; preds = %.lr.ph32._crit_edge
  %20 = getelementptr inbounds nuw i8, ptr %18, i64 16
  store ptr null, ptr %20, align 8
  br label %21

21:                                               ; preds = %19, %.lr.ph32._crit_edge
  %.not8.i = icmp eq ptr %.030.lcssa, null
  %22 = getelementptr inbounds nuw i8, ptr %.01531.lcssa, i64 24
  %23 = load ptr, ptr %22, align 8
  br i1 %.not8.i, label %26, label %24

24:                                               ; preds = %21
  %25 = getelementptr inbounds nuw i8, ptr %.030.lcssa, i64 24
  store ptr %23, ptr %25, align 8
  br label %RemoveSensorlistItem.exit

26:                                               ; preds = %21
  store ptr %23, ptr @SDL_sensorlist, align 8
  br label %RemoveSensorlistItem.exit

RemoveSensorlistItem.exit:                        ; preds = %24, %26
  %27 = load ptr, ptr %.01531.lcssa, align 8
  tail call void @SDL_free_REAL(ptr noundef %27) #18
  tail call void @SDL_free_REAL(ptr noundef nonnull %.01531.lcssa) #18
  br label %.loopexit

.lr.ph49:                                         ; preds = %.lr.ph32.preheader, %.lr.ph32
  %.0153148 = phi ptr [ %.015, %.lr.ph32 ], [ %.01528, %.lr.ph32.preheader ]
  %28 = getelementptr inbounds nuw i8, ptr %.0153148, i64 24
  %.015 = load ptr, ptr %28, align 8
  %.not19 = icmp eq ptr %.015, null
  br i1 %.not19, label %.loopexit, label %.lr.ph32, !llvm.loop !27

.loopexit:                                        ; preds = %.lr.ph49, %.preheader, %RemoveSensorlistItem.exit, %.lr.ph._crit_edge
  tail call void @SDL_UnlockJoysticks_REAL() #18
  ret void
}